; Function Attrs: mustprogress nounwind uwtable
define hidden void @_ZN16G1ConcurrentMark23clear_bitmap_for_regionEP12G1HeapRegion(ptr noundef nonnull align 8 dereferenceable(1849) %0, ptr nocapture noundef readonly %1) local_unnamed_addr #0 align 2 {
  %3 = getelementptr inbounds i8, ptr %0, i64 16
  %4 = load ptr, ptr %1, align 8
  %5 = getelementptr inbounds i8, ptr %1, i64 8
  %6 = load ptr, ptr %5, align 8
  %7 = ptrtoint ptr %6 to i64
  %8 = ptrtoint ptr %4 to i64
  %9 = sub i64 %7, %8
  %10 = lshr i64 %9, 3
  tail call void @_ZN10MarkBitMap8do_clearE9MemRegionb(ptr noundef nonnull align 8 dereferenceable(48) %3, ptr %4, i64 %10, i1 noundef zeroext false) #22
  ret void
}